target datalayout = "e-m:e-p270:32:32-p271:32:32-p272:64:64-i64:64-i128:128-f80:128-n8:16:32:64-S128"
target triple = "x86_64-pc-linux-gnu"

%"class.llvm::SmallVectorBase" = type { ptr, i32, i32 }
%"class.llvm::ArrayRef.738" = type { ptr, i64 }
%"struct.llvm::FunctionSummary::VFuncId" = type { i64, i64 }
%class.anon.937 = type { ptr, ptr }

; Function Attrs: mustprogress nounwind uwtable
define linkonce_odr hidden noundef ptr @_ZNK4llvm25SmallVectorTemplateCommonImvE10getFirstElEv(ptr noundef nonnull align 8 dereferenceable(16) %0) #1 comdat align 2 {
  %2 = alloca ptr, align 8
  store ptr %0, ptr %2, align 8
  %3 = load ptr, ptr %2, align 8
  %4 = getelementptr inbounds i8, ptr %3, i64 16
  ret ptr %4
}

; Function Attrs: mustprogress nounwind uwtable
define linkonce_odr hidden void @_ZN4llvm25SmallVectorTemplateCommonImvE8grow_podEmm(ptr noundef nonnull align 8 dereferenceable(16) %0, i64 noundef %1, i64 noundef %2) #1 comdat align 2 {
  %4 = alloca ptr, align 8
  %5 = alloca i64, align 8
  %6 = alloca i64, align 8
  store ptr %0, ptr %4, align 8
  store i64 %1, ptr %5, align 8
  store i64 %2, ptr %6, align 8
  %7 = load ptr, ptr %4, align 8
  %8 = call noundef ptr @_ZNK4llvm25SmallVectorTemplateCommonImvE10getFirstElEv(ptr noundef nonnull align 8 dereferenceable(16) %7)
  %9 = load i64, ptr %5, align 8
  %10 = load i64, ptr %6, align 8
  call void @_ZN4llvm15SmallVectorBaseIjE8grow_podEPvmm(ptr noundef nonnull align 8 dereferenceable(16) %7, ptr noundef %8, i64 noundef %9, i64 noundef %10)
  ret void
}

; Function Attrs: mustprogress nounwind uwtable
define linkonce_odr hidden void @_ZN4llvm23SmallVectorTemplateBaseImLb1EE4growEm(ptr noundef nonnull align 8 dereferenceable(16) %0, i64 noundef %1) #1 comdat align 2 {
  %3 = alloca ptr, align 8
  %4 = alloca i64, align 8
  store ptr %0, ptr %3, align 8
  store i64 %1, ptr %4, align 8
  %5 = load ptr, ptr %3, align 8
  %6 = load i64, ptr %4, align 8
  call void @_ZN4llvm25SmallVectorTemplateCommonImvE8grow_podEmm(ptr noundef nonnull align 8 dereferenceable(16) %5, i64 noundef %6, i64 noundef 8)
  ret void
}

; Function Attrs: mustprogress nounwind uwtable
define linkonce_odr hidden noundef ptr @_ZN4llvm25SmallVectorTemplateCommonImvE32reserveForParamAndGetAddressImplINS_23SmallVectorTemplateBaseImLb1EEEEEPKmPT_RS5_m(ptr noundef %0, ptr noundef nonnull align 8 dereferenceable(8) %1, i64 noundef %2) #1 comdat align 2 {
  %4 = alloca ptr, align 8
  %5 = alloca ptr, align 8
  %6 = alloca ptr, align 8
  %7 = alloca i64, align 8
  %8 = alloca i64, align 8
  %9 = alloca i8, align 1
  %10 = alloca i64, align 8
  store ptr %0, ptr %5, align 8
  store ptr %1, ptr %6, align 8
  store i64 %2, ptr %7, align 8
  %11 = load ptr, ptr %5, align 8
  %12 = call noundef i64 @_ZNK4llvm15SmallVectorBaseIjE4sizeEv(ptr noundef nonnull align 8 dereferenceable(16) %11)
  %13 = load i64, ptr %7, align 8
  %14 = add i64 %12, %13
  store i64 %14, ptr %8, align 8
  %15 = load i64, ptr %8, align 8
  %16 = load ptr, ptr %5, align 8
  %17 = call noundef i64 @_ZNK4llvm15SmallVectorBaseIjE8capacityEv(ptr noundef nonnull align 8 dereferenceable(16) %16)
  %18 = icmp ule i64 %15, %17
  br i1 %18, label %19, label %21

19:                                               ; preds = %3
  %20 = load ptr, ptr %6, align 8
  store ptr %20, ptr %4, align 8
  br label %35

21:                                               ; preds = %3
  store i8 0, ptr %9, align 1
  store i64 -1, ptr %10, align 8
  %22 = load ptr, ptr %5, align 8
  %23 = load i64, ptr %8, align 8
  call void @_ZN4llvm23SmallVectorTemplateBaseImLb1EE4growEm(ptr noundef nonnull align 8 dereferenceable(16) %22, i64 noundef %23)
  %24 = load i8, ptr %9, align 1
  %25 = trunc i8 %24 to i1
  br i1 %25, label %26, label %31

26:                                               ; preds = %21
  %27 = load ptr, ptr %5, align 8
  %28 = call noundef ptr @_ZN4llvm25SmallVectorTemplateCommonImvE5beginEv(ptr noundef nonnull align 8 dereferenceable(16) %27)
  %29 = load i64, ptr %10, align 8
  %30 = getelementptr inbounds i64, ptr %28, i64 %29
  br label %33

31:                                               ; preds = %21
  %32 = load ptr, ptr %6, align 8
  br label %33

33:                                               ; preds = %31, %26
  %34 = phi ptr [ %30, %26 ], [ %32, %31 ]
  store ptr %34, ptr %4, align 8
  br label %35

35:                                               ; preds = %33, %19
  %36 = load ptr, ptr %4, align 8
  ret ptr %36
}

; Function Attrs: mustprogress nounwind uwtable
define linkonce_odr hidden noundef ptr @_ZN4llvm23SmallVectorTemplateBaseImLb1EE28reserveForParamAndGetAddressERmm(ptr noundef nonnull align 8 dereferenceable(16) %0, ptr noundef nonnull align 8 dereferenceable(8) %1, i64 noundef %2) #1 comdat align 2 {
  %4 = alloca ptr, align 8
  %5 = alloca ptr, align 8
  %6 = alloca i64, align 8
  store ptr %0, ptr %4, align 8
  store ptr %1, ptr %5, align 8
  store i64 %2, ptr %6, align 8
  %7 = load ptr, ptr %4, align 8
  %8 = load ptr, ptr %5, align 8
  %9 = load i64, ptr %6, align 8
  %10 = call noundef ptr @_ZN4llvm25SmallVectorTemplateCommonImvE32reserveForParamAndGetAddressImplINS_23SmallVectorTemplateBaseImLb1EEEEEPKmPT_RS5_m(ptr noundef %7, ptr noundef nonnull align 8 dereferenceable(8) %8, i64 noundef %9)
  ret ptr %10
}

; Function Attrs: mustprogress nounwind uwtable
define linkonce_odr hidden void @_ZN4llvm23SmallVectorTemplateBaseImLb1EE13destroy_rangeEPmS2_(ptr noundef %0, ptr noundef %1) #1 comdat align 2 {
  %3 = alloca ptr, align 8
  %4 = alloca ptr, align 8
  store ptr %0, ptr %3, align 8
  store ptr %1, ptr %4, align 8
  ret void
}

; Function Attrs: mustprogress nounwind uwtable
define linkonce_odr hidden noundef ptr @_ZN4llvm25SmallVectorTemplateCommonImvE3endEv(ptr noundef nonnull align 8 dereferenceable(16) %0) #1 comdat align 2 {
  %2 = alloca ptr, align 8
  store ptr %0, ptr %2, align 8
  %3 = load ptr, ptr %2, align 8
  %4 = call noundef ptr @_ZN4llvm25SmallVectorTemplateCommonImvE5beginEv(ptr noundef nonnull align 8 dereferenceable(16) %3)
  %5 = call noundef i64 @_ZNK4llvm15SmallVectorBaseIjE4sizeEv(ptr noundef nonnull align 8 dereferenceable(16) %3)
  %6 = getelementptr inbounds i64, ptr %4, i64 %5
  ret ptr %6
}

; Function Attrs: mustprogress nounwind uwtable
define linkonce_odr hidden noundef ptr @_ZN4llvm25SmallVectorTemplateCommonImvE5beginEv(ptr noundef nonnull align 8 dereferenceable(16) %0) #1 comdat align 2 {
  %2 = alloca ptr, align 8
  store ptr %0, ptr %2, align 8
  %3 = load ptr, ptr %2, align 8
  %4 = getelementptr inbounds nuw %"class.llvm::SmallVectorBase", ptr %3, i32 0, i32 0
  %5 = load ptr, ptr %4, align 8
  ret ptr %5
}

; Function Attrs: mustprogress nounwind uwtable
define linkonce_odr hidden void @_ZN4llvm23SmallVectorTemplateBaseImLb1EE9push_backEm(ptr noundef nonnull align 8 dereferenceable(16) %0, i64 noundef %1) #1 comdat align 2 {
  %3 = alloca ptr, align 8
  %4 = alloca i64, align 8
  %5 = alloca ptr, align 8
  store ptr %0, ptr %3, align 8
  store i64 %1, ptr %4, align 8
  %6 = load ptr, ptr %3, align 8
  %7 = call noundef ptr @_ZN4llvm23SmallVectorTemplateBaseImLb1EE28reserveForParamAndGetAddressERmm(ptr noundef nonnull align 8 dereferenceable(16) %6, ptr noundef nonnull align 8 dereferenceable(8) %4, i64 noundef 1)
  store ptr %7, ptr %5, align 8
  %8 = call noundef ptr @_ZN4llvm25SmallVectorTemplateCommonImvE3endEv(ptr noundef nonnull align 8 dereferenceable(16) %6)
  %9 = load ptr, ptr %5, align 8
  call void @llvm.memcpy.p0.p0.i64(ptr align 1 %8, ptr align 8 %9, i64 8, i1 false)
  %10 = call noundef i64 @_ZNK4llvm15SmallVectorBaseIjE4sizeEv(ptr noundef nonnull align 8 dereferenceable(16) %6)
  %11 = add i64 %10, 1
  call void @_ZN4llvm15SmallVectorBaseIjE8set_sizeEm(ptr noundef nonnull align 8 dereferenceable(16) %6, i64 noundef %11)
  ret void
}

; Function Attrs: mustprogress nounwind uwtable
define linkonce_odr hidden noundef ptr @_ZNK4llvm8ArrayRefINS_15FunctionSummary7VFuncIdEE3endEv(ptr noundef nonnull align 8 dereferenceable(16) %0) #1 comdat align 2 {
  %2 = alloca ptr, align 8
  store ptr %0, ptr %2, align 8
  %3 = load ptr, ptr %2, align 8
  %4 = getelementptr inbounds nuw %"class.llvm::ArrayRef.738", ptr %3, i32 0, i32 0
  %5 = load ptr, ptr %4, align 8
  %6 = getelementptr inbounds nuw %"class.llvm::ArrayRef.738", ptr %3, i32 0, i32 1
  %7 = load i64, ptr %6, align 8
  %8 = getelementptr inbounds %"struct.llvm::FunctionSummary::VFuncId", ptr %5, i64 %7
  ret ptr %8
}

; Function Attrs: mustprogress nounwind uwtable
define linkonce_odr hidden noundef ptr @_ZNK4llvm8ArrayRefINS_15FunctionSummary7VFuncIdEE5beginEv(ptr noundef nonnull align 8 dereferenceable(16) %0) #1 comdat align 2 {
  %2 = alloca ptr, align 8
  store ptr %0, ptr %2, align 8
  %3 = load ptr, ptr %2, align 8
  %4 = getelementptr inbounds nuw %"class.llvm::ArrayRef.738", ptr %3, i32 0, i32 0
  %5 = load ptr, ptr %4, align 8
  ret ptr %5
}

; Function Attrs: mustprogress nounwind uwtable
define linkonce_odr hidden void @_ZN4llvm15SmallVectorImplImE5clearEv(ptr noundef nonnull align 8 dereferenceable(16) %0) #1 comdat align 2 {
  %2 = alloca ptr, align 8
  store ptr %0, ptr %2, align 8
  %3 = load ptr, ptr %2, align 8
  %4 = call noundef ptr @_ZN4llvm25SmallVectorTemplateCommonImvE5beginEv(ptr noundef nonnull align 8 dereferenceable(16) %3)
  %5 = call noundef ptr @_ZN4llvm25SmallVectorTemplateCommonImvE3endEv(ptr noundef nonnull align 8 dereferenceable(16) %3)
  call void @_ZN4llvm23SmallVectorTemplateBaseImLb1EE13destroy_rangeEPmS2_(ptr noundef %4, ptr noundef %5)
  %6 = getelementptr inbounds nuw %"class.llvm::SmallVectorBase", ptr %3, i32 0, i32 1
  store i32 0, ptr %6, align 8
  ret void
}

; Function Attrs: mustprogress nounwind uwtable
define linkonce_odr hidden noundef zeroext i1 @_ZNK4llvm8ArrayRefINS_15FunctionSummary7VFuncIdEE5emptyEv(ptr noundef nonnull align 8 dereferenceable(16) %0) #1 comdat align 2 {
  %2 = alloca ptr, align 8
  store ptr %0, ptr %2, align 8
  %3 = load ptr, ptr %2, align 8
  %4 = getelementptr inbounds nuw %"class.llvm::ArrayRef.738", ptr %3, i32 0, i32 1
  %5 = load i64, ptr %4, align 8
  %6 = icmp eq i64 %5, 0
  ret i1 %6
}

; Function Attrs: mustprogress nounwind uwtable
define internal void @"_ZZL32writeFunctionTypeMetadataRecordsIZZN12_GLOBAL__N_118IndexBitcodeWriter31writeCombinedGlobalValueSummaryEvENK3$_0clESt4pairImPN4llvm18GlobalValueSummaryEEbEUlRKNS4_9ValueInfoEE_EvRNS4_15BitstreamWriterEPNS4_15FunctionSummaryET_ENKUlmNS4_8ArrayRefINSE_7VFuncIdEEEE_clEmSJ_"(ptr noundef nonnull align 8 dereferenceable(16) %0, i64 noundef %1, ptr %2, i64 %3) #1 align 2 {
  %5 = alloca %"class.llvm::ArrayRef.738", align 8
  %6 = alloca ptr, align 8
  %7 = alloca i64, align 8
  %8 = alloca ptr, align 8
  %9 = alloca ptr, align 8
  %10 = alloca ptr, align 8
  %11 = alloca ptr, align 8
  %12 = getelementptr inbounds nuw { ptr, i64 }, ptr %5, i32 0, i32 0
  store ptr %2, ptr %12, align 8
  %13 = getelementptr inbounds nuw { ptr, i64 }, ptr %5, i32 0, i32 1
  store i64 %3, ptr %13, align 8
  store ptr %0, ptr %6, align 8
  store i64 %1, ptr %7, align 8
  %14 = load ptr, ptr %6, align 8
  %15 = call noundef zeroext i1 @_ZNK4llvm8ArrayRefINS_15FunctionSummary7VFuncIdEE5emptyEv(ptr noundef nonnull align 8 dereferenceable(16) %5)
  br i1 %15, label %16, label %17

16:                                               ; preds = %4
  br label %50

17:                                               ; preds = %4
  %18 = getelementptr inbounds nuw %class.anon.937, ptr %14, i32 0, i32 0
  %19 = load ptr, ptr %18, align 8
  call void @_ZN4llvm15SmallVectorImplImE5clearEv(ptr noundef nonnull align 8 dereferenceable(16) %19)
  store ptr %5, ptr %8, align 8
  %20 = load ptr, ptr %8, align 8
  %21 = call noundef ptr @_ZNK4llvm8ArrayRefINS_15FunctionSummary7VFuncIdEE5beginEv(ptr noundef nonnull align 8 dereferenceable(16) %20)
  store ptr %21, ptr %9, align 8
  %22 = load ptr, ptr %8, align 8
  %23 = call noundef ptr @_ZNK4llvm8ArrayRefINS_15FunctionSummary7VFuncIdEE3endEv(ptr noundef nonnull align 8 dereferenceable(16) %22)
  store ptr %23, ptr %10, align 8
  br label %24

24:                                               ; preds = %40, %17
  %25 = load ptr, ptr %9, align 8
  %26 = load ptr, ptr %10, align 8
  %27 = icmp ne ptr %25, %26
  br i1 %27, label %28, label %43

28:                                               ; preds = %24
  %29 = load ptr, ptr %9, align 8
  store ptr %29, ptr %11, align 8
  %30 = getelementptr inbounds nuw %class.anon.937, ptr %14, i32 0, i32 0
  %31 = load ptr, ptr %30, align 8
  %32 = load ptr, ptr %11, align 8
  %33 = getelementptr inbounds nuw %"struct.llvm::FunctionSummary::VFuncId", ptr %32, i32 0, i32 0
  %34 = load i64, ptr %33, align 8
  call void @_ZN4llvm23SmallVectorTemplateBaseImLb1EE9push_backEm(ptr noundef nonnull align 8 dereferenceable(16) %31, i64 noundef %34)
  %35 = getelementptr inbounds nuw %class.anon.937, ptr %14, i32 0, i32 0
  %36 = load ptr, ptr %35, align 8
  %37 = load ptr, ptr %11, align 8
  %38 = getelementptr inbounds nuw %"struct.llvm::FunctionSummary::VFuncId", ptr %37, i32 0, i32 1
  %39 = load i64, ptr %38, align 8
  call void @_ZN4llvm23SmallVectorTemplateBaseImLb1EE9push_backEm(ptr noundef nonnull align 8 dereferenceable(16) %36, i64 noundef %39)
  br label %40

40:                                               ; preds = %28
  %41 = load ptr, ptr %9, align 8
  %42 = getelementptr inbounds %"struct.llvm::FunctionSummary::VFuncId", ptr %41, i32 1
  store ptr %42, ptr %9, align 8
  br label %24

43:                                               ; preds = %24
  %44 = getelementptr inbounds nuw %class.anon.937, ptr %14, i32 0, i32 1
  %45 = load ptr, ptr %44, align 8
  %46 = load i64, ptr %7, align 8
  %47 = trunc i64 %46 to i32
  %48 = getelementptr inbounds nuw %class.anon.937, ptr %14, i32 0, i32 0
  %49 = load ptr, ptr %48, align 8
  call void @_ZN4llvm15BitstreamWriter10EmitRecordINS_11SmallVectorImLj64EEEEEvjRKT_j(ptr noundef nonnull align 8 dereferenceable(152) %45, i32 noundef %47, ptr noundef nonnull align 8 dereferenceable(528) %49, i32 noundef 0)
  br label %50

50:                                               ; preds = %43, %16
  ret void
}