; Function Attrs: mustprogress nounwind uwtable
define internal fastcc void @"_ZZL32writeFunctionTypeMetadataRecordsIZZN12_GLOBAL__N_118IndexBitcodeWriter31writeCombinedGlobalValueSummaryEvENK3$_0clESt4pairImPN4llvm18GlobalValueSummaryEEbEUlRKNS4_9ValueInfoEE_EvRNS4_15BitstreamWriterEPNS4_15FunctionSummaryET_ENKUlmNS4_8ArrayRefINSE_7VFuncIdEEEE_clEmSJ_"(ptr nocapture noundef nonnull readonly align 8 dereferenceable(16) %0, i64 noundef %1, ptr readonly %2, i64 %3) unnamed_addr #0 align 2 {
  %5 = icmp eq i64 %3, 0
  br i1 %5, label %40, label %.lr.ph.preheader

.lr.ph.preheader:                                 ; preds = %4
  %6 = load ptr, ptr %0, align 8
  %7 = tail call noundef i64 @_ZNK4llvm15SmallVectorBaseIjE4sizeEv(ptr noundef nonnull align 8 dereferenceable(16) %6) #27
  %8 = getelementptr inbounds nuw i8, ptr %6, i64 8
  store i32 0, ptr %8, align 8
  %9 = getelementptr inbounds %"struct.llvm::FunctionSummary::VFuncId", ptr %2, i64 %3
  br label %.lr.ph

.lr.ph:                                           ; preds = %.lr.ph.preheader, %_ZN4llvm23SmallVectorTemplateBaseImLb1EE9push_backEm.exit10
  %.014 = phi ptr [ %35, %_ZN4llvm23SmallVectorTemplateBaseImLb1EE9push_backEm.exit10 ], [ %2, %.lr.ph.preheader ]
  %10 = load ptr, ptr %0, align 8
  %11 = load i64, ptr %.014, align 8
  %12 = tail call noundef i64 @_ZNK4llvm15SmallVectorBaseIjE4sizeEv(ptr noundef nonnull align 8 dereferenceable(16) %10) #27
  %13 = add i64 %12, 1
  %14 = tail call noundef i64 @_ZNK4llvm15SmallVectorBaseIjE8capacityEv(ptr noundef nonnull align 8 dereferenceable(16) %10) #27
  %.not.i.i.i = icmp ugt i64 %13, %14
  br i1 %.not.i.i.i, label %15, label %_ZN4llvm23SmallVectorTemplateBaseImLb1EE9push_backEm.exit

15:                                               ; preds = %.lr.ph
  %16 = getelementptr inbounds i8, ptr %10, i64 16
  tail call void @_ZN4llvm15SmallVectorBaseIjE8grow_podEPvmm(ptr noundef nonnull align 8 dereferenceable(16) %10, ptr noundef nonnull %16, i64 noundef %13, i64 noundef 8) #27
  br label %_ZN4llvm23SmallVectorTemplateBaseImLb1EE9push_backEm.exit

_ZN4llvm23SmallVectorTemplateBaseImLb1EE9push_backEm.exit: ; preds = %.lr.ph, %15
  %17 = load ptr, ptr %10, align 8
  %18 = tail call noundef i64 @_ZNK4llvm15SmallVectorBaseIjE4sizeEv(ptr noundef nonnull align 8 dereferenceable(16) %10) #27
  %19 = getelementptr inbounds i64, ptr %17, i64 %18
  store i64 %11, ptr %19, align 1
  %20 = tail call noundef i64 @_ZNK4llvm15SmallVectorBaseIjE4sizeEv(ptr noundef nonnull align 8 dereferenceable(16) %10) #27
  %21 = add i64 %20, 1
  tail call void @_ZN4llvm15SmallVectorBaseIjE8set_sizeEm(ptr noundef nonnull align 8 dereferenceable(16) %10, i64 noundef %21) #27
  %22 = load ptr, ptr %0, align 8
  %23 = getelementptr inbounds nuw i8, ptr %.014, i64 8
  %24 = load i64, ptr %23, align 8
  %25 = tail call noundef i64 @_ZNK4llvm15SmallVectorBaseIjE4sizeEv(ptr noundef nonnull align 8 dereferenceable(16) %22) #27
  %26 = add i64 %25, 1
  %27 = tail call noundef i64 @_ZNK4llvm15SmallVectorBaseIjE8capacityEv(ptr noundef nonnull align 8 dereferenceable(16) %22) #27
  %.not.i.i.i9 = icmp ugt i64 %26, %27
  br i1 %.not.i.i.i9, label %28, label %_ZN4llvm23SmallVectorTemplateBaseImLb1EE9push_backEm.exit10

28:                                               ; preds = %_ZN4llvm23SmallVectorTemplateBaseImLb1EE9push_backEm.exit
  %29 = getelementptr inbounds i8, ptr %22, i64 16
  tail call void @_ZN4llvm15SmallVectorBaseIjE8grow_podEPvmm(ptr noundef nonnull align 8 dereferenceable(16) %22, ptr noundef nonnull %29, i64 noundef %26, i64 noundef 8) #27
  br label %_ZN4llvm23SmallVectorTemplateBaseImLb1EE9push_backEm.exit10

_ZN4llvm23SmallVectorTemplateBaseImLb1EE9push_backEm.exit10: ; preds = %_ZN4llvm23SmallVectorTemplateBaseImLb1EE9push_backEm.exit, %28
  %30 = load ptr, ptr %22, align 8
  %31 = tail call noundef i64 @_ZNK4llvm15SmallVectorBaseIjE4sizeEv(ptr noundef nonnull align 8 dereferenceable(16) %22) #27
  %32 = getelementptr inbounds i64, ptr %30, i64 %31
  store i64 %24, ptr %32, align 1
  %33 = tail call noundef i64 @_ZNK4llvm15SmallVectorBaseIjE4sizeEv(ptr noundef nonnull align 8 dereferenceable(16) %22) #27
  %34 = add i64 %33, 1
  tail call void @_ZN4llvm15SmallVectorBaseIjE8set_sizeEm(ptr noundef nonnull align 8 dereferenceable(16) %22, i64 noundef %34) #27
  %35 = getelementptr inbounds i8, ptr %.014, i64 16
  %.not = icmp eq ptr %35, %9
  br i1 %.not, label %._crit_edge, label %.lr.ph

._crit_edge:                                      ; preds = %_ZN4llvm23SmallVectorTemplateBaseImLb1EE9push_backEm.exit10
  %36 = getelementptr inbounds nuw i8, ptr %0, i64 8
  %37 = load ptr, ptr %36, align 8
  %38 = trunc nuw nsw i64 %1 to i32
  %39 = load ptr, ptr %0, align 8
  tail call void @_ZN4llvm15BitstreamWriter10EmitRecordINS_11SmallVectorImLj64EEEEEvjRKT_j(ptr noundef nonnull align 8 dereferenceable(152) %37, i32 noundef %38, ptr noundef nonnull align 8 dereferenceable(528) %39, i32 noundef 0)
  br label %40

40:                                               ; preds = %4, %._crit_edge
  ret void
}